; Function Attrs: nounwind uwtable
define dso_local i32 @nghttp2_session_server_new(ptr noundef writeonly captures(none) %0, ptr noundef readonly captures(none) %1, ptr noundef %2) local_unnamed_addr #1 {
  %4 = alloca ptr, align 8
  call void @llvm.lifetime.start.p0(i64 8, ptr nonnull %4) #20
  %5 = call fastcc i32 @session_new(ptr noundef %4, ptr noundef readonly %1, ptr noundef %2, i32 noundef 1, ptr noundef null, ptr noundef null)
  %.not.i = icmp eq i32 %5, 0
  br i1 %.not.i, label %6, label %nghttp2_session_server_new3.exit

6:                                                ; preds = %3
  %7 = load ptr, ptr %4, align 8, !tbaa !43
  %8 = getelementptr inbounds nuw i8, ptr %7, i64 2712
  store i32 2, ptr %8, align 8, !tbaa !45
  store ptr %7, ptr %0, align 8, !tbaa !43
  br label %nghttp2_session_server_new3.exit

nghttp2_session_server_new3.exit:                 ; preds = %3, %6
  call void @llvm.lifetime.end.p0(i64 8, ptr nonnull %4) #20
  ret i32 %5
}